target datalayout = "e-m:e-p270:32:32-p271:32:32-p272:64:64-i64:64-i128:128-f80:128-n8:16:32:64-S128"
target triple = "x86_64-pc-linux-gnu"

%struct._psqlSettings = type { ptr, i32, ptr, i8, ptr, ptr, %struct.printQueryOpt, ptr, ptr, ptr, i8, i8, i32, i32, ptr, ptr, i8, [4 x ptr], i8, i32, ptr, i8, i32, ptr, ptr, i64, i64, i8, ptr, ptr, ptr, i8, i8, i8, i8, i8, i8, i8, i32, i32, i32, i32, i32, i32, i32, i32, ptr, ptr, ptr, i32, i8, i32 }
%struct.printQueryOpt = type { %struct.printTableOpt, ptr, ptr, ptr, i8, ptr, i32 }
%struct.printTableOpt = type { i32, i16, i32, i32, i16, i16, i32, i8, i8, i8, i8, i64, ptr, %struct.separator, %struct.separator, [2 x i8], i8, ptr, i32, i32, i32, i32, i32, i32 }
%struct.separator = type { ptr, i8 }

@pset = external global %struct._psqlSettings, align 8
@.str.13 = private unnamed_addr constant [9 x i8] c"ENCODING\00", align 1
@.str.245 = private unnamed_addr constant [60 x i8] c"%s: invalid encoding name or conversion procedure not found\00", align 1

; Function Attrs: nounwind uwtable
define internal void @ignore_slash_options(ptr noundef %0) #0 {
  %2 = alloca ptr, align 8
  %3 = alloca ptr, align 8
  store ptr %0, ptr %2, align 8
  call void @llvm.lifetime.start.p0(i64 8, ptr %3) #10
  br label %4

4:                                                ; preds = %8, %1
  %5 = load ptr, ptr %2, align 8
  %6 = call ptr @psql_scan_slash_option(ptr noundef %5, i32 noundef 0, ptr noundef null, i1 noundef zeroext false)
  store ptr %6, ptr %3, align 8
  %7 = icmp ne ptr %6, null
  br i1 %7, label %8, label %10

8:                                                ; preds = %4
  %9 = load ptr, ptr %3, align 8
  call void @free(ptr noundef %9) #10
  br label %4, !llvm.loop !18

10:                                               ; preds = %4
  call void @llvm.lifetime.end.p0(i64 8, ptr %3) #10
  ret void
}

; Function Attrs: nounwind uwtable
define internal i32 @exec_command_encoding(ptr noundef %0, i1 noundef zeroext %1) #0 {
  %3 = alloca ptr, align 8
  %4 = alloca i8, align 1
  %5 = alloca ptr, align 8
  store ptr %0, ptr %3, align 8
  %6 = zext i1 %1 to i8
  store i8 %6, ptr %4, align 1
  %7 = load i8, ptr %4, align 1, !range !4, !noundef !5
  %8 = trunc i8 %7 to i1
  br i1 %8, label %9, label %37

9:                                                ; preds = %2
  call void @llvm.lifetime.start.p0(i64 8, ptr %5) #10
  %10 = load ptr, ptr %3, align 8
  %11 = call ptr @psql_scan_slash_option(ptr noundef %10, i32 noundef 0, ptr noundef null, i1 noundef zeroext false)
  store ptr %11, ptr %5, align 8
  %12 = load ptr, ptr %5, align 8
  %13 = icmp ne ptr %12, null
  br i1 %13, label %18, label %14

14:                                               ; preds = %9
  %15 = load i32, ptr getelementptr inbounds nuw (%struct._psqlSettings, ptr @pset, i32 0, i32 1), align 8
  %16 = call ptr @pg_encoding_to_char(i32 noundef %15)
  %17 = call i32 @puts(ptr noundef %16)
  br label %36

18:                                               ; preds = %9
  %19 = load ptr, ptr @pset, align 8
  %20 = load ptr, ptr %5, align 8
  %21 = call i32 @PQsetClientEncoding(ptr noundef %19, ptr noundef %20)
  %22 = icmp eq i32 %21, -1
  br i1 %22, label %23, label %25

23:                                               ; preds = %18
  %24 = load ptr, ptr %5, align 8
  call void (i32, i32, ptr, ...) @pg_log_generic(i32 noundef 4, i32 noundef 0, ptr noundef @.str.245, ptr noundef %24)
  br label %34

25:                                               ; preds = %18
  %26 = load ptr, ptr @pset, align 8
  %27 = call i32 @PQclientEncoding(ptr noundef %26)
  store i32 %27, ptr getelementptr inbounds nuw (%struct._psqlSettings, ptr @pset, i32 0, i32 1), align 8
  %28 = load i32, ptr getelementptr inbounds nuw (%struct._psqlSettings, ptr @pset, i32 0, i32 1), align 8
  store i32 %28, ptr getelementptr inbounds nuw (%struct.printTableOpt, ptr getelementptr inbounds nuw (%struct._psqlSettings, ptr @pset, i32 0, i32 6), i32 0, i32 18), align 8
  %29 = load i32, ptr getelementptr inbounds nuw (%struct._psqlSettings, ptr @pset, i32 0, i32 1), align 8
  call void @setFmtEncoding(i32 noundef %29)
  %30 = load ptr, ptr getelementptr inbounds nuw (%struct._psqlSettings, ptr @pset, i32 0, i32 29), align 8
  %31 = load i32, ptr getelementptr inbounds nuw (%struct._psqlSettings, ptr @pset, i32 0, i32 1), align 8
  %32 = call ptr @pg_encoding_to_char(i32 noundef %31)
  %33 = call zeroext i1 @SetVariable(ptr noundef %30, ptr noundef @.str.13, ptr noundef %32)
  br label %34

34:                                               ; preds = %25, %23
  %35 = load ptr, ptr %5, align 8
  call void @free(ptr noundef %35) #10
  br label %36

36:                                               ; preds = %34, %14
  call void @llvm.lifetime.end.p0(i64 8, ptr %5) #10
  br label %39

37:                                               ; preds = %2
  %38 = load ptr, ptr %3, align 8
  call void @ignore_slash_options(ptr noundef %38)
  br label %39

39:                                               ; preds = %37, %36
  ret i32 2
}