; Function Attrs: nounwind uwtable
define internal fastcc void @exec_command_encoding(ptr noundef %0, i1 noundef zeroext %1) unnamed_addr #0 {
  %3 = tail call ptr @psql_scan_slash_option(ptr noundef %0, i32 noundef 0, ptr noundef null, i1 noundef zeroext false) #16
  %.not = icmp eq ptr %3, null
  br i1 %1, label %4, label %22

4:                                                ; preds = %2
  br i1 %.not, label %5, label %9

5:                                                ; preds = %4
  %6 = load i32, ptr getelementptr inbounds nuw (i8, ptr @pset, i64 8), align 8
  %7 = tail call ptr @pg_encoding_to_char(i32 noundef %6) #16
  %8 = tail call i32 @puts(ptr noundef nonnull dereferenceable(1) %7)
  br label %ignore_slash_options.exit

9:                                                ; preds = %4
  %10 = load ptr, ptr @pset, align 8
  %11 = tail call i32 @PQsetClientEncoding(ptr noundef %10, ptr noundef nonnull %3) #16
  %12 = icmp eq i32 %11, -1
  br i1 %12, label %13, label %14

13:                                               ; preds = %9
  tail call void (i32, i32, ptr, ...) @pg_log_generic(i32 noundef 4, i32 noundef 0, ptr noundef nonnull @.str.245, ptr noundef nonnull %3) #16
  br label %21

14:                                               ; preds = %9
  %15 = load ptr, ptr @pset, align 8
  %16 = tail call i32 @PQclientEncoding(ptr noundef %15) #16
  store i32 %16, ptr getelementptr inbounds nuw (i8, ptr @pset, i64 8), align 8
  store i32 %16, ptr getelementptr inbounds nuw (i8, ptr @pset, i64 144), align 8
  tail call void @setFmtEncoding(i32 noundef %16) #16
  %17 = load ptr, ptr getelementptr inbounds nuw (i8, ptr @pset, i64 384), align 8
  %18 = load i32, ptr getelementptr inbounds nuw (i8, ptr @pset, i64 8), align 8
  %19 = tail call ptr @pg_encoding_to_char(i32 noundef %18) #16
  %20 = tail call zeroext i1 @SetVariable(ptr noundef %17, ptr noundef nonnull @.str.13, ptr noundef %19) #16
  br label %21

21:                                               ; preds = %14, %13
  tail call void @free(ptr noundef nonnull %3) #16
  br label %ignore_slash_options.exit

22:                                               ; preds = %2
  br i1 %.not, label %ignore_slash_options.exit, label %.lr.ph.i

.lr.ph.i:                                         ; preds = %22, %.lr.ph.i
  %23 = phi ptr [ %24, %.lr.ph.i ], [ %3, %22 ]
  tail call void @free(ptr noundef nonnull %23) #16
  %24 = tail call ptr @psql_scan_slash_option(ptr noundef %0, i32 noundef 0, ptr noundef null, i1 noundef zeroext false) #16
  %.not.i = icmp eq ptr %24, null
  br i1 %.not.i, label %ignore_slash_options.exit, label %.lr.ph.i, !llvm.loop !10

ignore_slash_options.exit:                        ; preds = %.lr.ph.i, %22, %5, %21
  ret void
}